; Function Attrs: mustprogress uwtable
define noundef double @_ZNK8QuantLib25PiecewiseConstantVariance15totalVolatilityEm(ptr noundef nonnull align 8 dereferenceable(8) %this, i64 noundef %i) local_unnamed_addr #0 align 2 {
entry:
  %call = tail call noundef double @_ZNK8QuantLib25PiecewiseConstantVariance13totalVarianceEm(ptr noundef nonnull align 8 dereferenceable(8) %this, i64 noundef %i)
  %vtable = load ptr, ptr %this, align 8, !tbaa !3
  %vfn = getelementptr inbounds i8, ptr %vtable, i64 32
  %0 = load ptr, ptr %vfn, align 8
  %call2 = tail call noundef nonnull align 8 dereferenceable(24) ptr %0(ptr noundef nonnull align 8 dereferenceable(8) %this)
  %1 = load ptr, ptr %call2, align 8, !tbaa !10
  %add.ptr.i = getelementptr inbounds nuw double, ptr %1, i64 %i
  %2 = load double, ptr %add.ptr.i, align 8, !tbaa !17
  %div = fdiv double %call, %2
  %call4 = tail call double @sqrt(double noundef %div) #15, !tbaa !26
  ret double %call4
}